target datalayout = "e-m:e-p270:32:32-p271:32:32-p272:64:64-i64:64-i128:128-f80:128-n8:16:32:64-S128"
target triple = "x86_64-pc-linux-gnu"

%struct._dfilter_loc = type { i64, i64 }

@.str.22 = private unnamed_addr constant [3 x i8] c"%s\00", align 1

; Function Attrs: null_pointer_is_valid sspstrong uwtable
define internal void @do_multiplication(ptr noundef %0, ptr noundef %1, ptr noundef %2, ptr noundef %3) #0 {
  %5 = alloca ptr, align 8
  %6 = alloca ptr, align 8
  %7 = alloca ptr, align 8
  %8 = alloca ptr, align 8
  %9 = alloca ptr, align 8
  %10 = alloca ptr, align 8
  %11 = alloca %struct._dfilter_loc, align 8
  store ptr %0, ptr %5, align 8
  store ptr %1, ptr %6, align 8
  store ptr %2, ptr %7, align 8
  store ptr %3, ptr %8, align 8
  call void @llvm.lifetime.start.p0(i64 8, ptr %9) #8
  call void @llvm.lifetime.start.p0(i64 8, ptr %10) #8
  %12 = load ptr, ptr %7, align 8
  %13 = call ptr @stnode_data(ptr noundef %12)
  %14 = load ptr, ptr %8, align 8
  %15 = call ptr @stnode_data(ptr noundef %14)
  %16 = call ptr @fvalue_multiply(ptr noundef %13, ptr noundef %15, ptr noundef %9)
  store ptr %16, ptr %10, align 8
  %17 = load ptr, ptr %10, align 8
  %18 = icmp eq ptr %17, null
  br i1 %18, label %19, label %39

19:                                               ; preds = %4
  br label %20

20:                                               ; preds = %19
  br label %21

21:                                               ; preds = %20
  br label %22

22:                                               ; preds = %21
  br label %23

23:                                               ; preds = %22
  %24 = load ptr, ptr %5, align 8
  %25 = load ptr, ptr %6, align 8
  %26 = call { i64, i64 } @stnode_location(ptr noundef %25)
  %27 = getelementptr inbounds nuw { i64, i64 }, ptr %11, i32 0, i32 0
  %28 = extractvalue { i64, i64 } %26, 0
  store i64 %28, ptr %27, align 8
  %29 = getelementptr inbounds nuw { i64, i64 }, ptr %11, i32 0, i32 1
  %30 = extractvalue { i64, i64 } %26, 1
  store i64 %30, ptr %29, align 8
  %31 = load ptr, ptr %9, align 8
  %32 = getelementptr inbounds nuw { i64, i64 }, ptr %11, i32 0, i32 0
  %33 = load i64, ptr %32, align 8
  %34 = getelementptr inbounds nuw { i64, i64 }, ptr %11, i32 0, i32 1
  %35 = load i64, ptr %34, align 8
  call void (ptr, i32, i64, i64, ptr, ...) @dfilter_fail(ptr noundef %24, i32 noundef -1, i64 %33, i64 %35, ptr noundef @.str.22, ptr noundef %31)
  %36 = load ptr, ptr %9, align 8
  call void @g_free(ptr noundef %36)
  call void @except_throw(i64 noundef 1, i64 noundef 5, ptr noundef null) #7
  unreachable

37:                                               ; No predecessors!
  br label %38

38:                                               ; preds = %37
  br label %39

39:                                               ; preds = %38, %4
  %40 = load ptr, ptr %6, align 8
  %41 = load ptr, ptr %10, align 8
  call void @stnode_replace(ptr noundef %40, i32 noundef 9, ptr noundef %41)
  call void @llvm.lifetime.end.p0(i64 8, ptr %10) #8
  call void @llvm.lifetime.end.p0(i64 8, ptr %9) #8
  ret void
}